(dp0
S'acc'
p1
(lp2
cnumpy.core.multiarray
scalar
p3
(cnumpy
dtype
p4
(S'f8'
p5
I0
I1
tp6
Rp7
(I3
S'<'
p8
NNNI-1
I-1
I0
tp9
bS'>:\xd2d\xe74\xec?'
p10
tp11
Rp12
asS'loss'
p13
(lp14
g3
(g7
S'\x92JS\xc0\x82\x97\xbc>'
p15
tp16
Rp17
asS'val_acc'
p18
(lp19
g3
(g7
S'\xa2sul\xb3\x83\xed?'
p20
tp21
Rp22
asS'val_loss'
p23
(lp24
g3
(g7
S'\xcc\xae\x89}\x04\x88\xcc?'
p25
tp26
Rp27
as.